; Function Attrs: nounwind uwtable
define internal ptr @namespace_reduce(ptr noundef readonly captures(none) %0, ptr readnone captures(none) %1) #0 {
  %3 = tail call ptr @PyTuple_New(i64 noundef 0) #3
  %.not = icmp eq ptr %3, null
  br i1 %.not, label %Py_DECREF.exit, label %4

4:                                                ; preds = %2
  %5 = getelementptr i8, ptr %0, i64 8
  %.val = load ptr, ptr %5, align 8, !tbaa !10
  %6 = getelementptr inbounds nuw i8, ptr %0, i64 16
  %7 = load ptr, ptr %6, align 8, !tbaa !24
  %8 = tail call ptr (i64, ...) @PyTuple_Pack(i64 noundef 3, ptr noundef %.val, ptr noundef nonnull %3, ptr noundef %7) #3
  %9 = load i32, ptr %3, align 8, !tbaa !9
  %.not.i = icmp sgt i32 %9, -1
  br i1 %.not.i, label %10, label %Py_DECREF.exit

10:                                               ; preds = %4
  %11 = add nsw i32 %9, -1
  store i32 %11, ptr %3, align 8, !tbaa !9
  %12 = icmp eq i32 %11, 0
  br i1 %12, label %13, label %Py_DECREF.exit

13:                                               ; preds = %10
  tail call void @_Py_Dealloc(ptr noundef nonnull %3) #3
  br label %Py_DECREF.exit

Py_DECREF.exit:                                   ; preds = %13, %10, %4, %2
  %.0 = phi ptr [ null, %2 ], [ %8, %4 ], [ %8, %10 ], [ %8, %13 ]
  ret ptr %.0
}